(dp0
S'n_videos'
p1
I1
sS'image_shape'
p2
(I255
I255
I3
tp3
sS'videos'
p4
(lp5
(lp6
S'/home/jeetkanjani7/Tonbo/data/Imagenet_test/ILSVRC/Curated/ILSVRC2017_VID_train_0000/ILSVRC2017_train_00013000/000000.00.crop.x.jpg'
p7
aS'/home/jeetkanjani7/Tonbo/data/Imagenet_test/ILSVRC/Curated/ILSVRC2017_VID_train_0000/ILSVRC2017_train_00013000/000001.00.crop.x.jpg'
p8
aS'/home/jeetkanjani7/Tonbo/data/Imagenet_test/ILSVRC/Curated/ILSVRC2017_VID_train_0000/ILSVRC2017_train_00013000/000002.00.crop.x.jpg'
p9
aS'/home/jeetkanjani7/Tonbo/data/Imagenet_test/ILSVRC/Curated/ILSVRC2017_VID_train_0000/ILSVRC2017_train_00013000/000003.00.crop.x.jpg'
p10
aS'/home/jeetkanjani7/Tonbo/data/Imagenet_test/ILSVRC/Curated/ILSVRC2017_VID_train_0000/ILSVRC2017_train_00013000/000004.00.crop.x.jpg'
p11
aS'/home/jeetkanjani7/Tonbo/data/Imagenet_test/ILSVRC/Curated/ILSVRC2017_VID_train_0000/ILSVRC2017_train_00013000/000005.00.crop.x.jpg'
p12
aS'/home/jeetkanjani7/Tonbo/data/Imagenet_test/ILSVRC/Curated/ILSVRC2017_VID_train_0000/ILSVRC2017_train_00013000/000006.00.crop.x.jpg'
p13
aS'/home/jeetkanjani7/Tonbo/data/Imagenet_test/ILSVRC/Curated/ILSVRC2017_VID_train_0000/ILSVRC2017_train_00013000/000007.00.crop.x.jpg'
p14
aS'/home/jeetkanjani7/Tonbo/data/Imagenet_test/ILSVRC/Curated/ILSVRC2017_VID_train_0000/ILSVRC2017_train_00013000/000008.00.crop.x.jpg'
p15
aS'/home/jeetkanjani7/Tonbo/data/Imagenet_test/ILSVRC/Curated/ILSVRC2017_VID_train_0000/ILSVRC2017_train_00013000/000009.00.crop.x.jpg'
p16
aS'/home/jeetkanjani7/Tonbo/data/Imagenet_test/ILSVRC/Curated/ILSVRC2017_VID_train_0000/ILSVRC2017_train_00013000/000010.00.crop.x.jpg'
p17
aS'/home/jeetkanjani7/Tonbo/data/Imagenet_test/ILSVRC/Curated/ILSVRC2017_VID_train_0000/ILSVRC2017_train_00013000/000011.00.crop.x.jpg'
p18
aS'/home/jeetkanjani7/Tonbo/data/Imagenet_test/ILSVRC/Curated/ILSVRC2017_VID_train_0000/ILSVRC2017_train_00013000/000012.00.crop.x.jpg'
p19
aS'/home/jeetkanjani7/Tonbo/data/Imagenet_test/ILSVRC/Curated/ILSVRC2017_VID_train_0000/ILSVRC2017_train_00013000/000013.00.crop.x.jpg'
p20
aS'/home/jeetkanjani7/Tonbo/data/Imagenet_test/ILSVRC/Curated/ILSVRC2017_VID_train_0000/ILSVRC2017_train_00013000/000014.00.crop.x.jpg'
p21
aS'/home/jeetkanjani7/Tonbo/data/Imagenet_test/ILSVRC/Curated/ILSVRC2017_VID_train_0000/ILSVRC2017_train_00013000/000015.00.crop.x.jpg'
p22
aS'/home/jeetkanjani7/Tonbo/data/Imagenet_test/ILSVRC/Curated/ILSVRC2017_VID_train_0000/ILSVRC2017_train_00013000/000016.00.crop.x.jpg'
p23
aS'/home/jeetkanjani7/Tonbo/data/Imagenet_test/ILSVRC/Curated/ILSVRC2017_VID_train_0000/ILSVRC2017_train_00013000/000017.00.crop.x.jpg'
p24
aS'/home/jeetkanjani7/Tonbo/data/Imagenet_test/ILSVRC/Curated/ILSVRC2017_VID_train_0000/ILSVRC2017_train_00013000/000018.00.crop.x.jpg'
p25
aS'/home/jeetkanjani7/Tonbo/data/Imagenet_test/ILSVRC/Curated/ILSVRC2017_VID_train_0000/ILSVRC2017_train_00013000/000019.00.crop.x.jpg'
p26
aS'/home/jeetkanjani7/Tonbo/data/Imagenet_test/ILSVRC/Curated/ILSVRC2017_VID_train_0000/ILSVRC2017_train_00013000/000020.00.crop.x.jpg'
p27
aS'/home/jeetkanjani7/Tonbo/data/Imagenet_test/ILSVRC/Curated/ILSVRC2017_VID_train_0000/ILSVRC2017_train_00013000/000021.00.crop.x.jpg'
p28
aS'/home/jeetkanjani7/Tonbo/data/Imagenet_test/ILSVRC/Curated/ILSVRC2017_VID_train_0000/ILSVRC2017_train_00013000/000022.00.crop.x.jpg'
p29
aS'/home/jeetkanjani7/Tonbo/data/Imagenet_test/ILSVRC/Curated/ILSVRC2017_VID_train_0000/ILSVRC2017_train_00013000/000023.00.crop.x.jpg'
p30
aS'/home/jeetkanjani7/Tonbo/data/Imagenet_test/ILSVRC/Curated/ILSVRC2017_VID_train_0000/ILSVRC2017_train_00013000/000024.00.crop.x.jpg'
p31
aS'/home/jeetkanjani7/Tonbo/data/Imagenet_test/ILSVRC/Curated/ILSVRC2017_VID_train_0000/ILSVRC2017_train_00013000/000025.00.crop.x.jpg'
p32
aS'/home/jeetkanjani7/Tonbo/data/Imagenet_test/ILSVRC/Curated/ILSVRC2017_VID_train_0000/ILSVRC2017_train_00013000/000026.00.crop.x.jpg'
p33
aS'/home/jeetkanjani7/Tonbo/data/Imagenet_test/ILSVRC/Curated/ILSVRC2017_VID_train_0000/ILSVRC2017_train_00013000/000027.00.crop.x.jpg'
p34
aS'/home/jeetkanjani7/Tonbo/data/Imagenet_test/ILSVRC/Curated/ILSVRC2017_VID_train_0000/ILSVRC2017_train_00013000/000028.00.crop.x.jpg'
p35
aS'/home/jeetkanjani7/Tonbo/data/Imagenet_test/ILSVRC/Curated/ILSVRC2017_VID_train_0000/ILSVRC2017_train_00013000/000029.00.crop.x.jpg'
p36
aS'/home/jeetkanjani7/Tonbo/data/Imagenet_test/ILSVRC/Curated/ILSVRC2017_VID_train_0000/ILSVRC2017_train_00013000/000030.00.crop.x.jpg'
p37
aS'/home/jeetkanjani7/Tonbo/data/Imagenet_test/ILSVRC/Curated/ILSVRC2017_VID_train_0000/ILSVRC2017_train_00013000/000031.00.crop.x.jpg'
p38
aS'/home/jeetkanjani7/Tonbo/data/Imagenet_test/ILSVRC/Curated/ILSVRC2017_VID_train_0000/ILSVRC2017_train_00013000/000032.00.crop.x.jpg'
p39
aS'/home/jeetkanjani7/Tonbo/data/Imagenet_test/ILSVRC/Curated/ILSVRC2017_VID_train_0000/ILSVRC2017_train_00013000/000033.00.crop.x.jpg'
p40
aS'/home/jeetkanjani7/Tonbo/data/Imagenet_test/ILSVRC/Curated/ILSVRC2017_VID_train_0000/ILSVRC2017_train_00013000/000034.00.crop.x.jpg'
p41
aS'/home/jeetkanjani7/Tonbo/data/Imagenet_test/ILSVRC/Curated/ILSVRC2017_VID_train_0000/ILSVRC2017_train_00013000/000035.00.crop.x.jpg'
p42
aS'/home/jeetkanjani7/Tonbo/data/Imagenet_test/ILSVRC/Curated/ILSVRC2017_VID_train_0000/ILSVRC2017_train_00013000/000036.00.crop.x.jpg'
p43
aS'/home/jeetkanjani7/Tonbo/data/Imagenet_test/ILSVRC/Curated/ILSVRC2017_VID_train_0000/ILSVRC2017_train_00013000/000037.00.crop.x.jpg'
p44
aS'/home/jeetkanjani7/Tonbo/data/Imagenet_test/ILSVRC/Curated/ILSVRC2017_VID_train_0000/ILSVRC2017_train_00013000/000038.00.crop.x.jpg'
p45
aS'/home/jeetkanjani7/Tonbo/data/Imagenet_test/ILSVRC/Curated/ILSVRC2017_VID_train_0000/ILSVRC2017_train_00013000/000039.00.crop.x.jpg'
p46
aS'/home/jeetkanjani7/Tonbo/data/Imagenet_test/ILSVRC/Curated/ILSVRC2017_VID_train_0000/ILSVRC2017_train_00013000/000040.00.crop.x.jpg'
p47
aS'/home/jeetkanjani7/Tonbo/data/Imagenet_test/ILSVRC/Curated/ILSVRC2017_VID_train_0000/ILSVRC2017_train_00013000/000041.00.crop.x.jpg'
p48
aS'/home/jeetkanjani7/Tonbo/data/Imagenet_test/ILSVRC/Curated/ILSVRC2017_VID_train_0000/ILSVRC2017_train_00013000/000042.00.crop.x.jpg'
p49
aS'/home/jeetkanjani7/Tonbo/data/Imagenet_test/ILSVRC/Curated/ILSVRC2017_VID_train_0000/ILSVRC2017_train_00013000/000043.00.crop.x.jpg'
p50
aS'/home/jeetkanjani7/Tonbo/data/Imagenet_test/ILSVRC/Curated/ILSVRC2017_VID_train_0000/ILSVRC2017_train_00013000/000044.00.crop.x.jpg'
p51
aS'/home/jeetkanjani7/Tonbo/data/Imagenet_test/ILSVRC/Curated/ILSVRC2017_VID_train_0000/ILSVRC2017_train_00013000/000045.00.crop.x.jpg'
p52
aS'/home/jeetkanjani7/Tonbo/data/Imagenet_test/ILSVRC/Curated/ILSVRC2017_VID_train_0000/ILSVRC2017_train_00013000/000046.00.crop.x.jpg'
p53
aS'/home/jeetkanjani7/Tonbo/data/Imagenet_test/ILSVRC/Curated/ILSVRC2017_VID_train_0000/ILSVRC2017_train_00013000/000047.00.crop.x.jpg'
p54
aS'/home/jeetkanjani7/Tonbo/data/Imagenet_test/ILSVRC/Curated/ILSVRC2017_VID_train_0000/ILSVRC2017_train_00013000/000048.00.crop.x.jpg'
p55
aS'/home/jeetkanjani7/Tonbo/data/Imagenet_test/ILSVRC/Curated/ILSVRC2017_VID_train_0000/ILSVRC2017_train_00013000/000049.00.crop.x.jpg'
p56
aS'/home/jeetkanjani7/Tonbo/data/Imagenet_test/ILSVRC/Curated/ILSVRC2017_VID_train_0000/ILSVRC2017_train_00013000/000050.00.crop.x.jpg'
p57
aS'/home/jeetkanjani7/Tonbo/data/Imagenet_test/ILSVRC/Curated/ILSVRC2017_VID_train_0000/ILSVRC2017_train_00013000/000051.00.crop.x.jpg'
p58
aS'/home/jeetkanjani7/Tonbo/data/Imagenet_test/ILSVRC/Curated/ILSVRC2017_VID_train_0000/ILSVRC2017_train_00013000/000052.00.crop.x.jpg'
p59
aS'/home/jeetkanjani7/Tonbo/data/Imagenet_test/ILSVRC/Curated/ILSVRC2017_VID_train_0000/ILSVRC2017_train_00013000/000053.00.crop.x.jpg'
p60
aS'/home/jeetkanjani7/Tonbo/data/Imagenet_test/ILSVRC/Curated/ILSVRC2017_VID_train_0000/ILSVRC2017_train_00013000/000054.00.crop.x.jpg'
p61
aS'/home/jeetkanjani7/Tonbo/data/Imagenet_test/ILSVRC/Curated/ILSVRC2017_VID_train_0000/ILSVRC2017_train_00013000/000055.00.crop.x.jpg'
p62
aS'/home/jeetkanjani7/Tonbo/data/Imagenet_test/ILSVRC/Curated/ILSVRC2017_VID_train_0000/ILSVRC2017_train_00013000/000056.00.crop.x.jpg'
p63
aS'/home/jeetkanjani7/Tonbo/data/Imagenet_test/ILSVRC/Curated/ILSVRC2017_VID_train_0000/ILSVRC2017_train_00013000/000057.00.crop.x.jpg'
p64
aS'/home/jeetkanjani7/Tonbo/data/Imagenet_test/ILSVRC/Curated/ILSVRC2017_VID_train_0000/ILSVRC2017_train_00013000/000058.00.crop.x.jpg'
p65
aS'/home/jeetkanjani7/Tonbo/data/Imagenet_test/ILSVRC/Curated/ILSVRC2017_VID_train_0000/ILSVRC2017_train_00013000/000059.00.crop.x.jpg'
p66
aS'/home/jeetkanjani7/Tonbo/data/Imagenet_test/ILSVRC/Curated/ILSVRC2017_VID_train_0000/ILSVRC2017_train_00013000/000060.00.crop.x.jpg'
p67
aS'/home/jeetkanjani7/Tonbo/data/Imagenet_test/ILSVRC/Curated/ILSVRC2017_VID_train_0000/ILSVRC2017_train_00013000/000061.00.crop.x.jpg'
p68
aS'/home/jeetkanjani7/Tonbo/data/Imagenet_test/ILSVRC/Curated/ILSVRC2017_VID_train_0000/ILSVRC2017_train_00013000/000062.00.crop.x.jpg'
p69
aS'/home/jeetkanjani7/Tonbo/data/Imagenet_test/ILSVRC/Curated/ILSVRC2017_VID_train_0000/ILSVRC2017_train_00013000/000063.00.crop.x.jpg'
p70
aS'/home/jeetkanjani7/Tonbo/data/Imagenet_test/ILSVRC/Curated/ILSVRC2017_VID_train_0000/ILSVRC2017_train_00013000/000064.00.crop.x.jpg'
p71
aS'/home/jeetkanjani7/Tonbo/data/Imagenet_test/ILSVRC/Curated/ILSVRC2017_VID_train_0000/ILSVRC2017_train_00013000/000065.00.crop.x.jpg'
p72
aS'/home/jeetkanjani7/Tonbo/data/Imagenet_test/ILSVRC/Curated/ILSVRC2017_VID_train_0000/ILSVRC2017_train_00013000/000066.00.crop.x.jpg'
p73
aS'/home/jeetkanjani7/Tonbo/data/Imagenet_test/ILSVRC/Curated/ILSVRC2017_VID_train_0000/ILSVRC2017_train_00013000/000067.00.crop.x.jpg'
p74
aS'/home/jeetkanjani7/Tonbo/data/Imagenet_test/ILSVRC/Curated/ILSVRC2017_VID_train_0000/ILSVRC2017_train_00013000/000068.00.crop.x.jpg'
p75
aS'/home/jeetkanjani7/Tonbo/data/Imagenet_test/ILSVRC/Curated/ILSVRC2017_VID_train_0000/ILSVRC2017_train_00013000/000069.00.crop.x.jpg'
p76
aS'/home/jeetkanjani7/Tonbo/data/Imagenet_test/ILSVRC/Curated/ILSVRC2017_VID_train_0000/ILSVRC2017_train_00013000/000070.00.crop.x.jpg'
p77
aS'/home/jeetkanjani7/Tonbo/data/Imagenet_test/ILSVRC/Curated/ILSVRC2017_VID_train_0000/ILSVRC2017_train_00013000/000071.00.crop.x.jpg'
p78
aS'/home/jeetkanjani7/Tonbo/data/Imagenet_test/ILSVRC/Curated/ILSVRC2017_VID_train_0000/ILSVRC2017_train_00013000/000072.00.crop.x.jpg'
p79
aS'/home/jeetkanjani7/Tonbo/data/Imagenet_test/ILSVRC/Curated/ILSVRC2017_VID_train_0000/ILSVRC2017_train_00013000/000073.00.crop.x.jpg'
p80
aS'/home/jeetkanjani7/Tonbo/data/Imagenet_test/ILSVRC/Curated/ILSVRC2017_VID_train_0000/ILSVRC2017_train_00013000/000074.00.crop.x.jpg'
p81
aS'/home/jeetkanjani7/Tonbo/data/Imagenet_test/ILSVRC/Curated/ILSVRC2017_VID_train_0000/ILSVRC2017_train_00013000/000075.00.crop.x.jpg'
p82
aS'/home/jeetkanjani7/Tonbo/data/Imagenet_test/ILSVRC/Curated/ILSVRC2017_VID_train_0000/ILSVRC2017_train_00013000/000076.00.crop.x.jpg'
p83
aS'/home/jeetkanjani7/Tonbo/data/Imagenet_test/ILSVRC/Curated/ILSVRC2017_VID_train_0000/ILSVRC2017_train_00013000/000077.00.crop.x.jpg'
p84
aS'/home/jeetkanjani7/Tonbo/data/Imagenet_test/ILSVRC/Curated/ILSVRC2017_VID_train_0000/ILSVRC2017_train_00013000/000078.00.crop.x.jpg'
p85
aS'/home/jeetkanjani7/Tonbo/data/Imagenet_test/ILSVRC/Curated/ILSVRC2017_VID_train_0000/ILSVRC2017_train_00013000/000079.00.crop.x.jpg'
p86
aS'/home/jeetkanjani7/Tonbo/data/Imagenet_test/ILSVRC/Curated/ILSVRC2017_VID_train_0000/ILSVRC2017_train_00013000/000080.00.crop.x.jpg'
p87
aS'/home/jeetkanjani7/Tonbo/data/Imagenet_test/ILSVRC/Curated/ILSVRC2017_VID_train_0000/ILSVRC2017_train_00013000/000081.00.crop.x.jpg'
p88
aS'/home/jeetkanjani7/Tonbo/data/Imagenet_test/ILSVRC/Curated/ILSVRC2017_VID_train_0000/ILSVRC2017_train_00013000/000082.00.crop.x.jpg'
p89
aS'/home/jeetkanjani7/Tonbo/data/Imagenet_test/ILSVRC/Curated/ILSVRC2017_VID_train_0000/ILSVRC2017_train_00013000/000083.00.crop.x.jpg'
p90
aS'/home/jeetkanjani7/Tonbo/data/Imagenet_test/ILSVRC/Curated/ILSVRC2017_VID_train_0000/ILSVRC2017_train_00013000/000084.00.crop.x.jpg'
p91
aS'/home/jeetkanjani7/Tonbo/data/Imagenet_test/ILSVRC/Curated/ILSVRC2017_VID_train_0000/ILSVRC2017_train_00013000/000085.00.crop.x.jpg'
p92
aS'/home/jeetkanjani7/Tonbo/data/Imagenet_test/ILSVRC/Curated/ILSVRC2017_VID_train_0000/ILSVRC2017_train_00013000/000086.00.crop.x.jpg'
p93
aS'/home/jeetkanjani7/Tonbo/data/Imagenet_test/ILSVRC/Curated/ILSVRC2017_VID_train_0000/ILSVRC2017_train_00013000/000087.00.crop.x.jpg'
p94
aS'/home/jeetkanjani7/Tonbo/data/Imagenet_test/ILSVRC/Curated/ILSVRC2017_VID_train_0000/ILSVRC2017_train_00013000/000088.00.crop.x.jpg'
p95
aS'/home/jeetkanjani7/Tonbo/data/Imagenet_test/ILSVRC/Curated/ILSVRC2017_VID_train_0000/ILSVRC2017_train_00013000/000089.00.crop.x.jpg'
p96
aS'/home/jeetkanjani7/Tonbo/data/Imagenet_test/ILSVRC/Curated/ILSVRC2017_VID_train_0000/ILSVRC2017_train_00013000/000090.00.crop.x.jpg'
p97
aS'/home/jeetkanjani7/Tonbo/data/Imagenet_test/ILSVRC/Curated/ILSVRC2017_VID_train_0000/ILSVRC2017_train_00013000/000091.00.crop.x.jpg'
p98
aS'/home/jeetkanjani7/Tonbo/data/Imagenet_test/ILSVRC/Curated/ILSVRC2017_VID_train_0000/ILSVRC2017_train_00013000/000092.00.crop.x.jpg'
p99
aS'/home/jeetkanjani7/Tonbo/data/Imagenet_test/ILSVRC/Curated/ILSVRC2017_VID_train_0000/ILSVRC2017_train_00013000/000093.00.crop.x.jpg'
p100
aS'/home/jeetkanjani7/Tonbo/data/Imagenet_test/ILSVRC/Curated/ILSVRC2017_VID_train_0000/ILSVRC2017_train_00013000/000094.00.crop.x.jpg'
p101
aS'/home/jeetkanjani7/Tonbo/data/Imagenet_test/ILSVRC/Curated/ILSVRC2017_VID_train_0000/ILSVRC2017_train_00013000/000095.00.crop.x.jpg'
p102
aS'/home/jeetkanjani7/Tonbo/data/Imagenet_test/ILSVRC/Curated/ILSVRC2017_VID_train_0000/ILSVRC2017_train_00013000/000096.00.crop.x.jpg'
p103
aS'/home/jeetkanjani7/Tonbo/data/Imagenet_test/ILSVRC/Curated/ILSVRC2017_VID_train_0000/ILSVRC2017_train_00013000/000097.00.crop.x.jpg'
p104
aS'/home/jeetkanjani7/Tonbo/data/Imagenet_test/ILSVRC/Curated/ILSVRC2017_VID_train_0000/ILSVRC2017_train_00013000/000098.00.crop.x.jpg'
p105
aS'/home/jeetkanjani7/Tonbo/data/Imagenet_test/ILSVRC/Curated/ILSVRC2017_VID_train_0000/ILSVRC2017_train_00013000/000099.00.crop.x.jpg'
p106
aS'/home/jeetkanjani7/Tonbo/data/Imagenet_test/ILSVRC/Curated/ILSVRC2017_VID_train_0000/ILSVRC2017_train_00013000/000100.00.crop.x.jpg'
p107
aS'/home/jeetkanjani7/Tonbo/data/Imagenet_test/ILSVRC/Curated/ILSVRC2017_VID_train_0000/ILSVRC2017_train_00013000/000101.00.crop.x.jpg'
p108
aS'/home/jeetkanjani7/Tonbo/data/Imagenet_test/ILSVRC/Curated/ILSVRC2017_VID_train_0000/ILSVRC2017_train_00013000/000102.00.crop.x.jpg'
p109
aS'/home/jeetkanjani7/Tonbo/data/Imagenet_test/ILSVRC/Curated/ILSVRC2017_VID_train_0000/ILSVRC2017_train_00013000/000103.00.crop.x.jpg'
p110
aS'/home/jeetkanjani7/Tonbo/data/Imagenet_test/ILSVRC/Curated/ILSVRC2017_VID_train_0000/ILSVRC2017_train_00013000/000104.00.crop.x.jpg'
p111
aS'/home/jeetkanjani7/Tonbo/data/Imagenet_test/ILSVRC/Curated/ILSVRC2017_VID_train_0000/ILSVRC2017_train_00013000/000105.00.crop.x.jpg'
p112
aS'/home/jeetkanjani7/Tonbo/data/Imagenet_test/ILSVRC/Curated/ILSVRC2017_VID_train_0000/ILSVRC2017_train_00013000/000106.00.crop.x.jpg'
p113
aS'/home/jeetkanjani7/Tonbo/data/Imagenet_test/ILSVRC/Curated/ILSVRC2017_VID_train_0000/ILSVRC2017_train_00013000/000107.00.crop.x.jpg'
p114
aS'/home/jeetkanjani7/Tonbo/data/Imagenet_test/ILSVRC/Curated/ILSVRC2017_VID_train_0000/ILSVRC2017_train_00013000/000108.00.crop.x.jpg'
p115
aS'/home/jeetkanjani7/Tonbo/data/Imagenet_test/ILSVRC/Curated/ILSVRC2017_VID_train_0000/ILSVRC2017_train_00013000/000109.00.crop.x.jpg'
p116
aS'/home/jeetkanjani7/Tonbo/data/Imagenet_test/ILSVRC/Curated/ILSVRC2017_VID_train_0000/ILSVRC2017_train_00013000/000110.00.crop.x.jpg'
p117
aS'/home/jeetkanjani7/Tonbo/data/Imagenet_test/ILSVRC/Curated/ILSVRC2017_VID_train_0000/ILSVRC2017_train_00013000/000111.00.crop.x.jpg'
p118
aS'/home/jeetkanjani7/Tonbo/data/Imagenet_test/ILSVRC/Curated/ILSVRC2017_VID_train_0000/ILSVRC2017_train_00013000/000112.00.crop.x.jpg'
p119
aS'/home/jeetkanjani7/Tonbo/data/Imagenet_test/ILSVRC/Curated/ILSVRC2017_VID_train_0000/ILSVRC2017_train_00013000/000113.00.crop.x.jpg'
p120
aS'/home/jeetkanjani7/Tonbo/data/Imagenet_test/ILSVRC/Curated/ILSVRC2017_VID_train_0000/ILSVRC2017_train_00013000/000114.00.crop.x.jpg'
p121
aS'/home/jeetkanjani7/Tonbo/data/Imagenet_test/ILSVRC/Curated/ILSVRC2017_VID_train_0000/ILSVRC2017_train_00013000/000115.00.crop.x.jpg'
p122
aS'/home/jeetkanjani7/Tonbo/data/Imagenet_test/ILSVRC/Curated/ILSVRC2017_VID_train_0000/ILSVRC2017_train_00013000/000116.00.crop.x.jpg'
p123
aS'/home/jeetkanjani7/Tonbo/data/Imagenet_test/ILSVRC/Curated/ILSVRC2017_VID_train_0000/ILSVRC2017_train_00013000/000117.00.crop.x.jpg'
p124
aS'/home/jeetkanjani7/Tonbo/data/Imagenet_test/ILSVRC/Curated/ILSVRC2017_VID_train_0000/ILSVRC2017_train_00013000/000118.00.crop.x.jpg'
p125
aS'/home/jeetkanjani7/Tonbo/data/Imagenet_test/ILSVRC/Curated/ILSVRC2017_VID_train_0000/ILSVRC2017_train_00013000/000119.00.crop.x.jpg'
p126
aS'/home/jeetkanjani7/Tonbo/data/Imagenet_test/ILSVRC/Curated/ILSVRC2017_VID_train_0000/ILSVRC2017_train_00013000/000120.00.crop.x.jpg'
p127
aS'/home/jeetkanjani7/Tonbo/data/Imagenet_test/ILSVRC/Curated/ILSVRC2017_VID_train_0000/ILSVRC2017_train_00013000/000121.00.crop.x.jpg'
p128
aS'/home/jeetkanjani7/Tonbo/data/Imagenet_test/ILSVRC/Curated/ILSVRC2017_VID_train_0000/ILSVRC2017_train_00013000/000122.00.crop.x.jpg'
p129
aS'/home/jeetkanjani7/Tonbo/data/Imagenet_test/ILSVRC/Curated/ILSVRC2017_VID_train_0000/ILSVRC2017_train_00013000/000123.00.crop.x.jpg'
p130
aS'/home/jeetkanjani7/Tonbo/data/Imagenet_test/ILSVRC/Curated/ILSVRC2017_VID_train_0000/ILSVRC2017_train_00013000/000124.00.crop.x.jpg'
p131
aS'/home/jeetkanjani7/Tonbo/data/Imagenet_test/ILSVRC/Curated/ILSVRC2017_VID_train_0000/ILSVRC2017_train_00013000/000125.00.crop.x.jpg'
p132
aS'/home/jeetkanjani7/Tonbo/data/Imagenet_test/ILSVRC/Curated/ILSVRC2017_VID_train_0000/ILSVRC2017_train_00013000/000126.00.crop.x.jpg'
p133
aS'/home/jeetkanjani7/Tonbo/data/Imagenet_test/ILSVRC/Curated/ILSVRC2017_VID_train_0000/ILSVRC2017_train_00013000/000127.00.crop.x.jpg'
p134
aS'/home/jeetkanjani7/Tonbo/data/Imagenet_test/ILSVRC/Curated/ILSVRC2017_VID_train_0000/ILSVRC2017_train_00013000/000128.00.crop.x.jpg'
p135
aS'/home/jeetkanjani7/Tonbo/data/Imagenet_test/ILSVRC/Curated/ILSVRC2017_VID_train_0000/ILSVRC2017_train_00013000/000129.00.crop.x.jpg'
p136
aS'/home/jeetkanjani7/Tonbo/data/Imagenet_test/ILSVRC/Curated/ILSVRC2017_VID_train_0000/ILSVRC2017_train_00013000/000130.00.crop.x.jpg'
p137
aS'/home/jeetkanjani7/Tonbo/data/Imagenet_test/ILSVRC/Curated/ILSVRC2017_VID_train_0000/ILSVRC2017_train_00013000/000131.00.crop.x.jpg'
p138
aS'/home/jeetkanjani7/Tonbo/data/Imagenet_test/ILSVRC/Curated/ILSVRC2017_VID_train_0000/ILSVRC2017_train_00013000/000132.00.crop.x.jpg'
p139
aS'/home/jeetkanjani7/Tonbo/data/Imagenet_test/ILSVRC/Curated/ILSVRC2017_VID_train_0000/ILSVRC2017_train_00013000/000133.00.crop.x.jpg'
p140
aS'/home/jeetkanjani7/Tonbo/data/Imagenet_test/ILSVRC/Curated/ILSVRC2017_VID_train_0000/ILSVRC2017_train_00013000/000134.00.crop.x.jpg'
p141
aS'/home/jeetkanjani7/Tonbo/data/Imagenet_test/ILSVRC/Curated/ILSVRC2017_VID_train_0000/ILSVRC2017_train_00013000/000135.00.crop.x.jpg'
p142
aS'/home/jeetkanjani7/Tonbo/data/Imagenet_test/ILSVRC/Curated/ILSVRC2017_VID_train_0000/ILSVRC2017_train_00013000/000136.00.crop.x.jpg'
p143
aS'/home/jeetkanjani7/Tonbo/data/Imagenet_test/ILSVRC/Curated/ILSVRC2017_VID_train_0000/ILSVRC2017_train_00013000/000137.00.crop.x.jpg'
p144
aS'/home/jeetkanjani7/Tonbo/data/Imagenet_test/ILSVRC/Curated/ILSVRC2017_VID_train_0000/ILSVRC2017_train_00013000/000138.00.crop.x.jpg'
p145
aS'/home/jeetkanjani7/Tonbo/data/Imagenet_test/ILSVRC/Curated/ILSVRC2017_VID_train_0000/ILSVRC2017_train_00013000/000139.00.crop.x.jpg'
p146
aS'/home/jeetkanjani7/Tonbo/data/Imagenet_test/ILSVRC/Curated/ILSVRC2017_VID_train_0000/ILSVRC2017_train_00013000/000140.00.crop.x.jpg'
p147
aS'/home/jeetkanjani7/Tonbo/data/Imagenet_test/ILSVRC/Curated/ILSVRC2017_VID_train_0000/ILSVRC2017_train_00013000/000141.00.crop.x.jpg'
p148
aS'/home/jeetkanjani7/Tonbo/data/Imagenet_test/ILSVRC/Curated/ILSVRC2017_VID_train_0000/ILSVRC2017_train_00013000/000142.00.crop.x.jpg'
p149
aS'/home/jeetkanjani7/Tonbo/data/Imagenet_test/ILSVRC/Curated/ILSVRC2017_VID_train_0000/ILSVRC2017_train_00013000/000143.00.crop.x.jpg'
p150
aS'/home/jeetkanjani7/Tonbo/data/Imagenet_test/ILSVRC/Curated/ILSVRC2017_VID_train_0000/ILSVRC2017_train_00013000/000144.00.crop.x.jpg'
p151
aS'/home/jeetkanjani7/Tonbo/data/Imagenet_test/ILSVRC/Curated/ILSVRC2017_VID_train_0000/ILSVRC2017_train_00013000/000145.00.crop.x.jpg'
p152
aS'/home/jeetkanjani7/Tonbo/data/Imagenet_test/ILSVRC/Curated/ILSVRC2017_VID_train_0000/ILSVRC2017_train_00013000/000146.00.crop.x.jpg'
p153
aS'/home/jeetkanjani7/Tonbo/data/Imagenet_test/ILSVRC/Curated/ILSVRC2017_VID_train_0000/ILSVRC2017_train_00013000/000147.00.crop.x.jpg'
p154
aS'/home/jeetkanjani7/Tonbo/data/Imagenet_test/ILSVRC/Curated/ILSVRC2017_VID_train_0000/ILSVRC2017_train_00013000/000148.00.crop.x.jpg'
p155
aS'/home/jeetkanjani7/Tonbo/data/Imagenet_test/ILSVRC/Curated/ILSVRC2017_VID_train_0000/ILSVRC2017_train_00013000/000149.00.crop.x.jpg'
p156
aS'/home/jeetkanjani7/Tonbo/data/Imagenet_test/ILSVRC/Curated/ILSVRC2017_VID_train_0000/ILSVRC2017_train_00013000/000150.00.crop.x.jpg'
p157
aS'/home/jeetkanjani7/Tonbo/data/Imagenet_test/ILSVRC/Curated/ILSVRC2017_VID_train_0000/ILSVRC2017_train_00013000/000151.00.crop.x.jpg'
p158
aS'/home/jeetkanjani7/Tonbo/data/Imagenet_test/ILSVRC/Curated/ILSVRC2017_VID_train_0000/ILSVRC2017_train_00013000/000152.00.crop.x.jpg'
p159
aS'/home/jeetkanjani7/Tonbo/data/Imagenet_test/ILSVRC/Curated/ILSVRC2017_VID_train_0000/ILSVRC2017_train_00013000/000153.00.crop.x.jpg'
p160
aS'/home/jeetkanjani7/Tonbo/data/Imagenet_test/ILSVRC/Curated/ILSVRC2017_VID_train_0000/ILSVRC2017_train_00013000/000154.00.crop.x.jpg'
p161
aS'/home/jeetkanjani7/Tonbo/data/Imagenet_test/ILSVRC/Curated/ILSVRC2017_VID_train_0000/ILSVRC2017_train_00013000/000155.00.crop.x.jpg'
p162
aS'/home/jeetkanjani7/Tonbo/data/Imagenet_test/ILSVRC/Curated/ILSVRC2017_VID_train_0000/ILSVRC2017_train_00013000/000156.00.crop.x.jpg'
p163
aS'/home/jeetkanjani7/Tonbo/data/Imagenet_test/ILSVRC/Curated/ILSVRC2017_VID_train_0000/ILSVRC2017_train_00013000/000157.00.crop.x.jpg'
p164
aS'/home/jeetkanjani7/Tonbo/data/Imagenet_test/ILSVRC/Curated/ILSVRC2017_VID_train_0000/ILSVRC2017_train_00013000/000158.00.crop.x.jpg'
p165
aS'/home/jeetkanjani7/Tonbo/data/Imagenet_test/ILSVRC/Curated/ILSVRC2017_VID_train_0000/ILSVRC2017_train_00013000/000159.00.crop.x.jpg'
p166
aS'/home/jeetkanjani7/Tonbo/data/Imagenet_test/ILSVRC/Curated/ILSVRC2017_VID_train_0000/ILSVRC2017_train_00013000/000160.00.crop.x.jpg'
p167
aS'/home/jeetkanjani7/Tonbo/data/Imagenet_test/ILSVRC/Curated/ILSVRC2017_VID_train_0000/ILSVRC2017_train_00013000/000161.00.crop.x.jpg'
p168
aS'/home/jeetkanjani7/Tonbo/data/Imagenet_test/ILSVRC/Curated/ILSVRC2017_VID_train_0000/ILSVRC2017_train_00013000/000162.00.crop.x.jpg'
p169
aS'/home/jeetkanjani7/Tonbo/data/Imagenet_test/ILSVRC/Curated/ILSVRC2017_VID_train_0000/ILSVRC2017_train_00013000/000163.00.crop.x.jpg'
p170
aS'/home/jeetkanjani7/Tonbo/data/Imagenet_test/ILSVRC/Curated/ILSVRC2017_VID_train_0000/ILSVRC2017_train_00013000/000164.00.crop.x.jpg'
p171
aS'/home/jeetkanjani7/Tonbo/data/Imagenet_test/ILSVRC/Curated/ILSVRC2017_VID_train_0000/ILSVRC2017_train_00013000/000165.00.crop.x.jpg'
p172
aS'/home/jeetkanjani7/Tonbo/data/Imagenet_test/ILSVRC/Curated/ILSVRC2017_VID_train_0000/ILSVRC2017_train_00013000/000166.00.crop.x.jpg'
p173
aS'/home/jeetkanjani7/Tonbo/data/Imagenet_test/ILSVRC/Curated/ILSVRC2017_VID_train_0000/ILSVRC2017_train_00013000/000167.00.crop.x.jpg'
p174
aS'/home/jeetkanjani7/Tonbo/data/Imagenet_test/ILSVRC/Curated/ILSVRC2017_VID_train_0000/ILSVRC2017_train_00013000/000168.00.crop.x.jpg'
p175
aS'/home/jeetkanjani7/Tonbo/data/Imagenet_test/ILSVRC/Curated/ILSVRC2017_VID_train_0000/ILSVRC2017_train_00013000/000169.00.crop.x.jpg'
p176
aS'/home/jeetkanjani7/Tonbo/data/Imagenet_test/ILSVRC/Curated/ILSVRC2017_VID_train_0000/ILSVRC2017_train_00013000/000170.00.crop.x.jpg'
p177
aS'/home/jeetkanjani7/Tonbo/data/Imagenet_test/ILSVRC/Curated/ILSVRC2017_VID_train_0000/ILSVRC2017_train_00013000/000171.00.crop.x.jpg'
p178
aS'/home/jeetkanjani7/Tonbo/data/Imagenet_test/ILSVRC/Curated/ILSVRC2017_VID_train_0000/ILSVRC2017_train_00013000/000172.00.crop.x.jpg'
p179
aS'/home/jeetkanjani7/Tonbo/data/Imagenet_test/ILSVRC/Curated/ILSVRC2017_VID_train_0000/ILSVRC2017_train_00013000/000173.00.crop.x.jpg'
p180
aS'/home/jeetkanjani7/Tonbo/data/Imagenet_test/ILSVRC/Curated/ILSVRC2017_VID_train_0000/ILSVRC2017_train_00013000/000174.00.crop.x.jpg'
p181
aS'/home/jeetkanjani7/Tonbo/data/Imagenet_test/ILSVRC/Curated/ILSVRC2017_VID_train_0000/ILSVRC2017_train_00013000/000175.00.crop.x.jpg'
p182
aS'/home/jeetkanjani7/Tonbo/data/Imagenet_test/ILSVRC/Curated/ILSVRC2017_VID_train_0000/ILSVRC2017_train_00013000/000176.00.crop.x.jpg'
p183
aS'/home/jeetkanjani7/Tonbo/data/Imagenet_test/ILSVRC/Curated/ILSVRC2017_VID_train_0000/ILSVRC2017_train_00013000/000177.00.crop.x.jpg'
p184
aS'/home/jeetkanjani7/Tonbo/data/Imagenet_test/ILSVRC/Curated/ILSVRC2017_VID_train_0000/ILSVRC2017_train_00013000/000178.00.crop.x.jpg'
p185
aS'/home/jeetkanjani7/Tonbo/data/Imagenet_test/ILSVRC/Curated/ILSVRC2017_VID_train_0000/ILSVRC2017_train_00013000/000179.00.crop.x.jpg'
p186
aS'/home/jeetkanjani7/Tonbo/data/Imagenet_test/ILSVRC/Curated/ILSVRC2017_VID_train_0000/ILSVRC2017_train_00013000/000180.00.crop.x.jpg'
p187
aS'/home/jeetkanjani7/Tonbo/data/Imagenet_test/ILSVRC/Curated/ILSVRC2017_VID_train_0000/ILSVRC2017_train_00013000/000181.00.crop.x.jpg'
p188
aS'/home/jeetkanjani7/Tonbo/data/Imagenet_test/ILSVRC/Curated/ILSVRC2017_VID_train_0000/ILSVRC2017_train_00013000/000182.00.crop.x.jpg'
p189
aS'/home/jeetkanjani7/Tonbo/data/Imagenet_test/ILSVRC/Curated/ILSVRC2017_VID_train_0000/ILSVRC2017_train_00013000/000183.00.crop.x.jpg'
p190
aS'/home/jeetkanjani7/Tonbo/data/Imagenet_test/ILSVRC/Curated/ILSVRC2017_VID_train_0000/ILSVRC2017_train_00013000/000184.00.crop.x.jpg'
p191
aS'/home/jeetkanjani7/Tonbo/data/Imagenet_test/ILSVRC/Curated/ILSVRC2017_VID_train_0000/ILSVRC2017_train_00013000/000185.00.crop.x.jpg'
p192
aS'/home/jeetkanjani7/Tonbo/data/Imagenet_test/ILSVRC/Curated/ILSVRC2017_VID_train_0000/ILSVRC2017_train_00013000/000186.00.crop.x.jpg'
p193
aS'/home/jeetkanjani7/Tonbo/data/Imagenet_test/ILSVRC/Curated/ILSVRC2017_VID_train_0000/ILSVRC2017_train_00013000/000187.00.crop.x.jpg'
p194
aS'/home/jeetkanjani7/Tonbo/data/Imagenet_test/ILSVRC/Curated/ILSVRC2017_VID_train_0000/ILSVRC2017_train_00013000/000188.00.crop.x.jpg'
p195
aS'/home/jeetkanjani7/Tonbo/data/Imagenet_test/ILSVRC/Curated/ILSVRC2017_VID_train_0000/ILSVRC2017_train_00013000/000189.00.crop.x.jpg'
p196
aS'/home/jeetkanjani7/Tonbo/data/Imagenet_test/ILSVRC/Curated/ILSVRC2017_VID_train_0000/ILSVRC2017_train_00013000/000190.00.crop.x.jpg'
p197
aS'/home/jeetkanjani7/Tonbo/data/Imagenet_test/ILSVRC/Curated/ILSVRC2017_VID_train_0000/ILSVRC2017_train_00013000/000191.00.crop.x.jpg'
p198
aS'/home/jeetkanjani7/Tonbo/data/Imagenet_test/ILSVRC/Curated/ILSVRC2017_VID_train_0000/ILSVRC2017_train_00013000/000192.00.crop.x.jpg'
p199
aS'/home/jeetkanjani7/Tonbo/data/Imagenet_test/ILSVRC/Curated/ILSVRC2017_VID_train_0000/ILSVRC2017_train_00013000/000193.00.crop.x.jpg'
p200
aS'/home/jeetkanjani7/Tonbo/data/Imagenet_test/ILSVRC/Curated/ILSVRC2017_VID_train_0000/ILSVRC2017_train_00013000/000194.00.crop.x.jpg'
p201
aS'/home/jeetkanjani7/Tonbo/data/Imagenet_test/ILSVRC/Curated/ILSVRC2017_VID_train_0000/ILSVRC2017_train_00013000/000195.00.crop.x.jpg'
p202
aS'/home/jeetkanjani7/Tonbo/data/Imagenet_test/ILSVRC/Curated/ILSVRC2017_VID_train_0000/ILSVRC2017_train_00013000/000196.00.crop.x.jpg'
p203
aS'/home/jeetkanjani7/Tonbo/data/Imagenet_test/ILSVRC/Curated/ILSVRC2017_VID_train_0000/ILSVRC2017_train_00013000/000197.00.crop.x.jpg'
p204
aS'/home/jeetkanjani7/Tonbo/data/Imagenet_test/ILSVRC/Curated/ILSVRC2017_VID_train_0000/ILSVRC2017_train_00013000/000198.00.crop.x.jpg'
p205
aS'/home/jeetkanjani7/Tonbo/data/Imagenet_test/ILSVRC/Curated/ILSVRC2017_VID_train_0000/ILSVRC2017_train_00013000/000199.00.crop.x.jpg'
p206
aS'/home/jeetkanjani7/Tonbo/data/Imagenet_test/ILSVRC/Curated/ILSVRC2017_VID_train_0000/ILSVRC2017_train_00013000/000200.00.crop.x.jpg'
p207
aS'/home/jeetkanjani7/Tonbo/data/Imagenet_test/ILSVRC/Curated/ILSVRC2017_VID_train_0000/ILSVRC2017_train_00013000/000201.00.crop.x.jpg'
p208
aS'/home/jeetkanjani7/Tonbo/data/Imagenet_test/ILSVRC/Curated/ILSVRC2017_VID_train_0000/ILSVRC2017_train_00013000/000202.00.crop.x.jpg'
p209
aS'/home/jeetkanjani7/Tonbo/data/Imagenet_test/ILSVRC/Curated/ILSVRC2017_VID_train_0000/ILSVRC2017_train_00013000/000203.00.crop.x.jpg'
p210
aS'/home/jeetkanjani7/Tonbo/data/Imagenet_test/ILSVRC/Curated/ILSVRC2017_VID_train_0000/ILSVRC2017_train_00013000/000204.00.crop.x.jpg'
p211
aS'/home/jeetkanjani7/Tonbo/data/Imagenet_test/ILSVRC/Curated/ILSVRC2017_VID_train_0000/ILSVRC2017_train_00013000/000205.00.crop.x.jpg'
p212
aS'/home/jeetkanjani7/Tonbo/data/Imagenet_test/ILSVRC/Curated/ILSVRC2017_VID_train_0000/ILSVRC2017_train_00013000/000206.00.crop.x.jpg'
p213
aS'/home/jeetkanjani7/Tonbo/data/Imagenet_test/ILSVRC/Curated/ILSVRC2017_VID_train_0000/ILSVRC2017_train_00013000/000207.00.crop.x.jpg'
p214
aS'/home/jeetkanjani7/Tonbo/data/Imagenet_test/ILSVRC/Curated/ILSVRC2017_VID_train_0000/ILSVRC2017_train_00013000/000208.00.crop.x.jpg'
p215
aS'/home/jeetkanjani7/Tonbo/data/Imagenet_test/ILSVRC/Curated/ILSVRC2017_VID_train_0000/ILSVRC2017_train_00013000/000209.00.crop.x.jpg'
p216
aS'/home/jeetkanjani7/Tonbo/data/Imagenet_test/ILSVRC/Curated/ILSVRC2017_VID_train_0000/ILSVRC2017_train_00013000/000210.00.crop.x.jpg'
p217
aS'/home/jeetkanjani7/Tonbo/data/Imagenet_test/ILSVRC/Curated/ILSVRC2017_VID_train_0000/ILSVRC2017_train_00013000/000211.00.crop.x.jpg'
p218
aS'/home/jeetkanjani7/Tonbo/data/Imagenet_test/ILSVRC/Curated/ILSVRC2017_VID_train_0000/ILSVRC2017_train_00013000/000212.00.crop.x.jpg'
p219
aS'/home/jeetkanjani7/Tonbo/data/Imagenet_test/ILSVRC/Curated/ILSVRC2017_VID_train_0000/ILSVRC2017_train_00013000/000213.00.crop.x.jpg'
p220
aS'/home/jeetkanjani7/Tonbo/data/Imagenet_test/ILSVRC/Curated/ILSVRC2017_VID_train_0000/ILSVRC2017_train_00013000/000214.00.crop.x.jpg'
p221
aS'/home/jeetkanjani7/Tonbo/data/Imagenet_test/ILSVRC/Curated/ILSVRC2017_VID_train_0000/ILSVRC2017_train_00013000/000215.00.crop.x.jpg'
p222
aS'/home/jeetkanjani7/Tonbo/data/Imagenet_test/ILSVRC/Curated/ILSVRC2017_VID_train_0000/ILSVRC2017_train_00013000/000216.00.crop.x.jpg'
p223
aS'/home/jeetkanjani7/Tonbo/data/Imagenet_test/ILSVRC/Curated/ILSVRC2017_VID_train_0000/ILSVRC2017_train_00013000/000217.00.crop.x.jpg'
p224
aS'/home/jeetkanjani7/Tonbo/data/Imagenet_test/ILSVRC/Curated/ILSVRC2017_VID_train_0000/ILSVRC2017_train_00013000/000218.00.crop.x.jpg'
p225
aS'/home/jeetkanjani7/Tonbo/data/Imagenet_test/ILSVRC/Curated/ILSVRC2017_VID_train_0000/ILSVRC2017_train_00013000/000219.00.crop.x.jpg'
p226
aS'/home/jeetkanjani7/Tonbo/data/Imagenet_test/ILSVRC/Curated/ILSVRC2017_VID_train_0000/ILSVRC2017_train_00013000/000220.00.crop.x.jpg'
p227
aS'/home/jeetkanjani7/Tonbo/data/Imagenet_test/ILSVRC/Curated/ILSVRC2017_VID_train_0000/ILSVRC2017_train_00013000/000221.00.crop.x.jpg'
p228
aS'/home/jeetkanjani7/Tonbo/data/Imagenet_test/ILSVRC/Curated/ILSVRC2017_VID_train_0000/ILSVRC2017_train_00013000/000222.00.crop.x.jpg'
p229
aS'/home/jeetkanjani7/Tonbo/data/Imagenet_test/ILSVRC/Curated/ILSVRC2017_VID_train_0000/ILSVRC2017_train_00013000/000223.00.crop.x.jpg'
p230
aS'/home/jeetkanjani7/Tonbo/data/Imagenet_test/ILSVRC/Curated/ILSVRC2017_VID_train_0000/ILSVRC2017_train_00013000/000224.00.crop.x.jpg'
p231
aS'/home/jeetkanjani7/Tonbo/data/Imagenet_test/ILSVRC/Curated/ILSVRC2017_VID_train_0000/ILSVRC2017_train_00013000/000225.00.crop.x.jpg'
p232
aS'/home/jeetkanjani7/Tonbo/data/Imagenet_test/ILSVRC/Curated/ILSVRC2017_VID_train_0000/ILSVRC2017_train_00013000/000226.00.crop.x.jpg'
p233
aS'/home/jeetkanjani7/Tonbo/data/Imagenet_test/ILSVRC/Curated/ILSVRC2017_VID_train_0000/ILSVRC2017_train_00013000/000227.00.crop.x.jpg'
p234
aS'/home/jeetkanjani7/Tonbo/data/Imagenet_test/ILSVRC/Curated/ILSVRC2017_VID_train_0000/ILSVRC2017_train_00013000/000228.00.crop.x.jpg'
p235
aS'/home/jeetkanjani7/Tonbo/data/Imagenet_test/ILSVRC/Curated/ILSVRC2017_VID_train_0000/ILSVRC2017_train_00013000/000229.00.crop.x.jpg'
p236
aS'/home/jeetkanjani7/Tonbo/data/Imagenet_test/ILSVRC/Curated/ILSVRC2017_VID_train_0000/ILSVRC2017_train_00013000/000230.00.crop.x.jpg'
p237
aS'/home/jeetkanjani7/Tonbo/data/Imagenet_test/ILSVRC/Curated/ILSVRC2017_VID_train_0000/ILSVRC2017_train_00013000/000231.00.crop.x.jpg'
p238
aS'/home/jeetkanjani7/Tonbo/data/Imagenet_test/ILSVRC/Curated/ILSVRC2017_VID_train_0000/ILSVRC2017_train_00013000/000232.00.crop.x.jpg'
p239
aS'/home/jeetkanjani7/Tonbo/data/Imagenet_test/ILSVRC/Curated/ILSVRC2017_VID_train_0000/ILSVRC2017_train_00013000/000233.00.crop.x.jpg'
p240
aS'/home/jeetkanjani7/Tonbo/data/Imagenet_test/ILSVRC/Curated/ILSVRC2017_VID_train_0000/ILSVRC2017_train_00013000/000234.00.crop.x.jpg'
p241
aS'/home/jeetkanjani7/Tonbo/data/Imagenet_test/ILSVRC/Curated/ILSVRC2017_VID_train_0000/ILSVRC2017_train_00013000/000235.00.crop.x.jpg'
p242
aS'/home/jeetkanjani7/Tonbo/data/Imagenet_test/ILSVRC/Curated/ILSVRC2017_VID_train_0000/ILSVRC2017_train_00013000/000236.00.crop.x.jpg'
p243
aS'/home/jeetkanjani7/Tonbo/data/Imagenet_test/ILSVRC/Curated/ILSVRC2017_VID_train_0000/ILSVRC2017_train_00013000/000237.00.crop.x.jpg'
p244
aS'/home/jeetkanjani7/Tonbo/data/Imagenet_test/ILSVRC/Curated/ILSVRC2017_VID_train_0000/ILSVRC2017_train_00013000/000238.00.crop.x.jpg'
p245
aS'/home/jeetkanjani7/Tonbo/data/Imagenet_test/ILSVRC/Curated/ILSVRC2017_VID_train_0000/ILSVRC2017_train_00013000/000239.00.crop.x.jpg'
p246
aS'/home/jeetkanjani7/Tonbo/data/Imagenet_test/ILSVRC/Curated/ILSVRC2017_VID_train_0000/ILSVRC2017_train_00013000/000240.00.crop.x.jpg'
p247
aS'/home/jeetkanjani7/Tonbo/data/Imagenet_test/ILSVRC/Curated/ILSVRC2017_VID_train_0000/ILSVRC2017_train_00013000/000241.00.crop.x.jpg'
p248
aS'/home/jeetkanjani7/Tonbo/data/Imagenet_test/ILSVRC/Curated/ILSVRC2017_VID_train_0000/ILSVRC2017_train_00013000/000242.00.crop.x.jpg'
p249
aS'/home/jeetkanjani7/Tonbo/data/Imagenet_test/ILSVRC/Curated/ILSVRC2017_VID_train_0000/ILSVRC2017_train_00013000/000243.00.crop.x.jpg'
p250
aS'/home/jeetkanjani7/Tonbo/data/Imagenet_test/ILSVRC/Curated/ILSVRC2017_VID_train_0000/ILSVRC2017_train_00013000/000244.00.crop.x.jpg'
p251
aS'/home/jeetkanjani7/Tonbo/data/Imagenet_test/ILSVRC/Curated/ILSVRC2017_VID_train_0000/ILSVRC2017_train_00013000/000245.00.crop.x.jpg'
p252
aS'/home/jeetkanjani7/Tonbo/data/Imagenet_test/ILSVRC/Curated/ILSVRC2017_VID_train_0000/ILSVRC2017_train_00013000/000246.00.crop.x.jpg'
p253
aS'/home/jeetkanjani7/Tonbo/data/Imagenet_test/ILSVRC/Curated/ILSVRC2017_VID_train_0000/ILSVRC2017_train_00013000/000247.00.crop.x.jpg'
p254
aS'/home/jeetkanjani7/Tonbo/data/Imagenet_test/ILSVRC/Curated/ILSVRC2017_VID_train_0000/ILSVRC2017_train_00013000/000248.00.crop.x.jpg'
p255
aS'/home/jeetkanjani7/Tonbo/data/Imagenet_test/ILSVRC/Curated/ILSVRC2017_VID_train_0000/ILSVRC2017_train_00013000/000249.00.crop.x.jpg'
p256
aS'/home/jeetkanjani7/Tonbo/data/Imagenet_test/ILSVRC/Curated/ILSVRC2017_VID_train_0000/ILSVRC2017_train_00013000/000250.00.crop.x.jpg'
p257
aS'/home/jeetkanjani7/Tonbo/data/Imagenet_test/ILSVRC/Curated/ILSVRC2017_VID_train_0000/ILSVRC2017_train_00013000/000251.00.crop.x.jpg'
p258
aS'/home/jeetkanjani7/Tonbo/data/Imagenet_test/ILSVRC/Curated/ILSVRC2017_VID_train_0000/ILSVRC2017_train_00013000/000252.00.crop.x.jpg'
p259
aS'/home/jeetkanjani7/Tonbo/data/Imagenet_test/ILSVRC/Curated/ILSVRC2017_VID_train_0000/ILSVRC2017_train_00013000/000253.00.crop.x.jpg'
p260
aS'/home/jeetkanjani7/Tonbo/data/Imagenet_test/ILSVRC/Curated/ILSVRC2017_VID_train_0000/ILSVRC2017_train_00013000/000254.00.crop.x.jpg'
p261
aS'/home/jeetkanjani7/Tonbo/data/Imagenet_test/ILSVRC/Curated/ILSVRC2017_VID_train_0000/ILSVRC2017_train_00013000/000255.00.crop.x.jpg'
p262
aS'/home/jeetkanjani7/Tonbo/data/Imagenet_test/ILSVRC/Curated/ILSVRC2017_VID_train_0000/ILSVRC2017_train_00013000/000256.00.crop.x.jpg'
p263
aS'/home/jeetkanjani7/Tonbo/data/Imagenet_test/ILSVRC/Curated/ILSVRC2017_VID_train_0000/ILSVRC2017_train_00013000/000257.00.crop.x.jpg'
p264
aS'/home/jeetkanjani7/Tonbo/data/Imagenet_test/ILSVRC/Curated/ILSVRC2017_VID_train_0000/ILSVRC2017_train_00013000/000258.00.crop.x.jpg'
p265
aas.